; ModuleID = '3/150.c'
source_filename = "3/150.c"
target datalayout = "e-m:e-p270:32:32-p271:32:32-p272:64:64-i64:64-f80:128-n8:16:32:64-S128"
target triple = "x86_64-pc-linux-gnu"

@.str = private unnamed_addr constant [6 x i8] c"%d %d\00", align 1
@.str.1 = private unnamed_addr constant [4 x i8] c"%d \00", align 1
@.str.2 = private unnamed_addr constant [4 x i8] c"yes\00", align 1
@.str.3 = private unnamed_addr constant [3 x i8] c"no\00", align 1

; Function Attrs: noinline nounwind uwtable
define dso_local i32 @main() #0 {
  %1 = alloca i32, align 4
  %2 = alloca i32, align 4
  %3 = alloca i32, align 4
  %4 = alloca i32, align 4
  %5 = alloca i32, align 4
  %6 = alloca i32, align 4
  %7 = alloca [1000 x i32], align 16
  %8 = alloca [1000 x i32], align 16
  store i32 0, i32* %1, align 4
  %9 = bitcast [1000 x i32]* %7 to i8*
  call void @llvm.memset.p0i8.i64(i8* align 16 %9, i8 0, i64 4000, i1 false)
  %10 = bitcast [1000 x i32]* %8 to i8*
  call void @llvm.memset.p0i8.i64(i8* align 16 %10, i8 0, i64 4000, i1 false)
  %11 = call i32 (i8*, ...) @__isoc99_scanf(i8* getelementptr inbounds ([6 x i8], [6 x i8]* @.str, i64 0, i64 0), i32* %3, i32* %4)
  store i32 0, i32* %2, align 4
  br label %12

12:                                               ; preds = %28, %0
  %13 = load i32, i32* %2, align 4
  %14 = load i32, i32* %3, align 4
  %15 = icmp slt i32 %13, %14
  br i1 %15, label %16, label %31

16:                                               ; preds = %12
  %17 = load i32, i32* %2, align 4
  %18 = sext i32 %17 to i64
  %19 = getelementptr inbounds [1000 x i32], [1000 x i32]* %7, i64 0, i64 %18
  %20 = call i32 (i8*, ...) @__isoc99_scanf(i8* getelementptr inbounds ([4 x i8], [4 x i8]* @.str.1, i64 0, i64 0), i32* %19)
  %21 = load i32, i32* %2, align 4
  %22 = sext i32 %21 to i64
  %23 = getelementptr inbounds [1000 x i32], [1000 x i32]* %7, i64 0, i64 %22
  %24 = load i32, i32* %23, align 4
  %25 = load i32, i32* %2, align 4
  %26 = sext i32 %25 to i64
  %27 = getelementptr inbounds [1000 x i32], [1000 x i32]* %8, i64 0, i64 %26
  store i32 %24, i32* %27, align 4
  br label %28

28:                                               ; preds = %16
  %29 = load i32, i32* %2, align 4
  %30 = add nsw i32 %29, 1
  store i32 %30, i32* %2, align 4
  br label %12

31:                                               ; preds = %12
  store i32 0, i32* %5, align 4
  br label %32

32:                                               ; preds = %61, %31
  %33 = load i32, i32* %5, align 4
  %34 = load i32, i32* %3, align 4
  %35 = icmp slt i32 %33, %34
  br i1 %35, label %36, label %64

36:                                               ; preds = %32
  %37 = load i32, i32* %5, align 4
  store i32 %37, i32* %6, align 4
  br label %38

38:                                               ; preds = %57, %36
  %39 = load i32, i32* %6, align 4
  %40 = load i32, i32* %3, align 4
  %41 = icmp slt i32 %39, %40
  br i1 %41, label %42, label %60

42:                                               ; preds = %38
  %43 = load i32, i32* %5, align 4
  %44 = sext i32 %43 to i64
  %45 = getelementptr inbounds [1000 x i32], [1000 x i32]* %7, i64 0, i64 %44
  %46 = load i32, i32* %45, align 4
  %47 = load i32, i32* %6, align 4
  %48 = sext i32 %47 to i64
  %49 = getelementptr inbounds [1000 x i32], [1000 x i32]* %8, i64 0, i64 %48
  %50 = load i32, i32* %49, align 4
  %51 = add nsw i32 %46, %50
  %52 = load i32, i32* %4, align 4
  %53 = icmp eq i32 %51, %52
  br i1 %53, label %54, label %56

54:                                               ; preds = %42
  %55 = call i32 (i8*, ...) @printf(i8* getelementptr inbounds ([4 x i8], [4 x i8]* @.str.2, i64 0, i64 0))
  store i32 0, i32* %1, align 4
  br label %66

56:                                               ; preds = %42
  br label %57

57:                                               ; preds = %56
  %58 = load i32, i32* %6, align 4
  %59 = add nsw i32 %58, 1
  store i32 %59, i32* %6, align 4
  br label %38

60:                                               ; preds = %38
  br label %61

61:                                               ; preds = %60
  %62 = load i32, i32* %5, align 4
  %63 = add nsw i32 %62, 1
  store i32 %63, i32* %5, align 4
  br label %32

64:                                               ; preds = %32
  %65 = call i32 (i8*, ...) @printf(i8* getelementptr inbounds ([3 x i8], [3 x i8]* @.str.3, i64 0, i64 0))
  store i32 0, i32* %1, align 4
  br label %66

66:                                               ; preds = %64, %54
  %67 = load i32, i32* %1, align 4
  ret i32 %67
}

; Function Attrs: argmemonly nounwind willreturn
declare void @llvm.memset.p0i8.i64(i8* nocapture writeonly, i8, i64, i1 immarg) #1

declare dso_local i32 @__isoc99_scanf(i8*, ...) #2

declare dso_local i32 @printf(i8*, ...) #2


!llvm.module.flags = !{!0}
!llvm.ident = !{!1}

!0 = !{i32 1, !"wchar_size", i32 4}
!1 = !{!"clang version 10.0.0-4ubuntu1 "}
